target datalayout = "e-m:e-p270:32:32-p271:32:32-p272:64:64-i64:64-i128:128-f80:128-n8:16:32:64-S128"
target triple = "x86_64-pc-linux-gnu"

%"class.std::map" = type { %"class.std::_Rb_tree" }
%"class.std::_Rb_tree" = type { %"struct.std::_Rb_tree<int, std::pair<const int, std::__cxx11::basic_string<char>>, std::_Select1st<std::pair<const int, std::__cxx11::basic_string<char>>>, std::less<int>>::_Rb_tree_impl" }
%"struct.std::_Rb_tree<int, std::pair<const int, std::__cxx11::basic_string<char>>, std::_Select1st<std::pair<const int, std::__cxx11::basic_string<char>>>, std::less<int>>::_Rb_tree_impl" = type { [8 x i8], %"struct.std::_Rb_tree_header" }
%"struct.std::_Rb_tree_header" = type { %"struct.std::_Rb_tree_node_base", i64 }
%"struct.std::_Rb_tree_node_base" = type { i32, ptr, ptr, ptr }
%"class.std::initializer_list" = type { ptr, i64 }
%"struct.std::pair" = type { i32, %"class.std::__cxx11::basic_string" }
%"class.std::__cxx11::basic_string" = type { %"struct.std::__cxx11::basic_string<char>::_Alloc_hider", i64, %union.anon }
%"struct.std::__cxx11::basic_string<char>::_Alloc_hider" = type { ptr }
%union.anon = type { i64, [8 x i8] }
%"struct.std::less" = type { i8 }
%"class.std::allocator.3" = type { i8 }

@__dso_handle = external hidden global i8
@_ZN10open_spiel7oh_hell9kPhaseStrB5cxx11E = linkonce_odr dso_local global %"class.std::map" zeroinitializer, comdat, align 8
@_ZGVN10open_spiel7oh_hell9kPhaseStrB5cxx11E = linkonce_odr dso_local global i64 0, comdat($_ZN10open_spiel7oh_hell9kPhaseStrB5cxx11E), align 8
@.str = private unnamed_addr constant [16 x i8] c"ChooseNumTricks\00", align 1
@.str.2 = private unnamed_addr constant [13 x i8] c"ChooseDealer\00", align 1
@.str.3 = private unnamed_addr constant [5 x i8] c"Deal\00", align 1
@.str.4 = private unnamed_addr constant [4 x i8] c"Bid\00", align 1
@.str.5 = private unnamed_addr constant [5 x i8] c"Play\00", align 1
@.str.6 = private unnamed_addr constant [9 x i8] c"GameOver\00", align 1

; Function Attrs: mustprogress nounwind uwtable
define linkonce_odr dso_local void @_ZNSt15__new_allocatorISt4pairIKiNSt7__cxx1112basic_stringIcSt11char_traitsIcESaIcEEEEED2Ev(ptr noundef nonnull align 1 dereferenceable(1) %0) unnamed_addr #5 comdat align 2 {
  %2 = alloca ptr, align 8
  store ptr %0, ptr %2, align 8
  ret void
}

; Function Attrs: mustprogress nounwind uwtable
define linkonce_odr dso_local void @_ZNSt15__new_allocatorISt4pairIKiNSt7__cxx1112basic_stringIcSt11char_traitsIcESaIcEEEEEC2Ev(ptr noundef nonnull align 1 dereferenceable(1) %0) unnamed_addr #5 comdat align 2 {
  %2 = alloca ptr, align 8
  store ptr %0, ptr %2, align 8
  ret void
}

; Function Attrs: mustprogress nounwind uwtable
define linkonce_odr dso_local void @_ZNSt4pairIKiNSt7__cxx1112basic_stringIcSt11char_traitsIcESaIcEEEED2Ev(ptr noundef nonnull align 8 dereferenceable(40) %0) unnamed_addr #5 comdat align 2 {
  %2 = alloca ptr, align 8
  store ptr %0, ptr %2, align 8
  %3 = load ptr, ptr %2, align 8
  %4 = getelementptr inbounds nuw %"struct.std::pair", ptr %3, i32 0, i32 1
  call void @_ZNSt7__cxx1112basic_stringIcSt11char_traitsIcESaIcEED1Ev(ptr noundef nonnull align 8 dereferenceable(32) %4) #3
  ret void
}

; Function Attrs: mustprogress nounwind uwtable
define linkonce_odr dso_local void @_ZNSaISt4pairIKiNSt7__cxx1112basic_stringIcSt11char_traitsIcESaIcEEEEED2Ev(ptr noundef nonnull align 1 dereferenceable(1) %0) unnamed_addr #5 comdat align 2 {
  %2 = alloca ptr, align 8
  store ptr %0, ptr %2, align 8
  %3 = load ptr, ptr %2, align 8
  call void @_ZNSt15__new_allocatorISt4pairIKiNSt7__cxx1112basic_stringIcSt11char_traitsIcESaIcEEEEED2Ev(ptr noundef nonnull align 1 dereferenceable(1) %3) #3
  ret void
}

; Function Attrs: mustprogress nounwind uwtable
define linkonce_odr dso_local void @_ZNSaISt4pairIKiNSt7__cxx1112basic_stringIcSt11char_traitsIcESaIcEEEEEC2Ev(ptr noundef nonnull align 1 dereferenceable(1) %0) unnamed_addr #5 comdat align 2 {
  %2 = alloca ptr, align 8
  store ptr %0, ptr %2, align 8
  %3 = load ptr, ptr %2, align 8
  call void @_ZNSt15__new_allocatorISt4pairIKiNSt7__cxx1112basic_stringIcSt11char_traitsIcESaIcEEEEEC2Ev(ptr noundef nonnull align 1 dereferenceable(1) %3) #3
  ret void
}

; Function Attrs: uwtable
define internal void @__cxx_global_var_init.1() #0 section ".text.startup" comdat($_ZN10open_spiel7oh_hell9kPhaseStrB5cxx11E) personality ptr @__gxx_personality_v0 {
  %1 = alloca %"class.std::initializer_list", align 8
  %2 = alloca [6 x %"struct.std::pair"], align 8
  %3 = alloca ptr, align 8
  %4 = alloca i32, align 4
  %5 = alloca ptr, align 8
  %6 = alloca i32, align 4
  %7 = alloca i32, align 4
  %8 = alloca i32, align 4
  %9 = alloca i32, align 4
  %10 = alloca i32, align 4
  %11 = alloca i32, align 4
  %12 = alloca %"struct.std::less", align 1
  %13 = alloca %"class.std::allocator.3", align 1
  %14 = load atomic i8, ptr @_ZGVN10open_spiel7oh_hell9kPhaseStrB5cxx11E acquire, align 8
  %15 = icmp eq i8 %14, 0
  br i1 %15, label %16, label %46

16:                                               ; preds = %0
  %17 = call i32 @__cxa_guard_acquire(ptr @_ZGVN10open_spiel7oh_hell9kPhaseStrB5cxx11E) #3
  %18 = icmp ne i32 %17, 0
  br i1 %18, label %19, label %46

19:                                               ; preds = %16
  store ptr %2, ptr %3, align 8
  store i32 0, ptr %4, align 4
  invoke void @_ZNSt4pairIKiNSt7__cxx1112basic_stringIcSt11char_traitsIcESaIcEEEEC2IiRA16_KcTnNSt9enable_ifIXaaclsr5_PCCPE22_MoveConstructiblePairIT_T0_EEclsr5_PCCPE30_ImplicitlyMoveConvertiblePairISD_SE_EEEbE4typeELb1EEEOSD_OSE_(ptr noundef nonnull align 8 dereferenceable(40) %2, ptr noundef nonnull align 4 dereferenceable(4) %4, ptr noundef nonnull align 1 dereferenceable(16) @.str)
          to label %20 unwind label %47

20:                                               ; preds = %19
  %21 = getelementptr inbounds %"struct.std::pair", ptr %2, i64 1
  store ptr %21, ptr %3, align 8
  store i32 1, ptr %7, align 4
  invoke void @_ZNSt4pairIKiNSt7__cxx1112basic_stringIcSt11char_traitsIcESaIcEEEEC2IiRA13_KcTnNSt9enable_ifIXaaclsr5_PCCPE22_MoveConstructiblePairIT_T0_EEclsr5_PCCPE30_ImplicitlyMoveConvertiblePairISD_SE_EEEbE4typeELb1EEEOSD_OSE_(ptr noundef nonnull align 8 dereferenceable(40) %21, ptr noundef nonnull align 4 dereferenceable(4) %7, ptr noundef nonnull align 1 dereferenceable(13) @.str.2)
          to label %22 unwind label %47

22:                                               ; preds = %20
  %23 = getelementptr inbounds %"struct.std::pair", ptr %2, i64 2
  store ptr %23, ptr %3, align 8
  store i32 2, ptr %8, align 4
  invoke void @_ZNSt4pairIKiNSt7__cxx1112basic_stringIcSt11char_traitsIcESaIcEEEEC2IiRA5_KcTnNSt9enable_ifIXaaclsr5_PCCPE22_MoveConstructiblePairIT_T0_EEclsr5_PCCPE30_ImplicitlyMoveConvertiblePairISD_SE_EEEbE4typeELb1EEEOSD_OSE_(ptr noundef nonnull align 8 dereferenceable(40) %23, ptr noundef nonnull align 4 dereferenceable(4) %8, ptr noundef nonnull align 1 dereferenceable(5) @.str.3)
          to label %24 unwind label %47

24:                                               ; preds = %22
  %25 = getelementptr inbounds %"struct.std::pair", ptr %2, i64 3
  store ptr %25, ptr %3, align 8
  store i32 3, ptr %9, align 4
  invoke void @_ZNSt4pairIKiNSt7__cxx1112basic_stringIcSt11char_traitsIcESaIcEEEEC2IiRA4_KcTnNSt9enable_ifIXaaclsr5_PCCPE22_MoveConstructiblePairIT_T0_EEclsr5_PCCPE30_ImplicitlyMoveConvertiblePairISD_SE_EEEbE4typeELb1EEEOSD_OSE_(ptr noundef nonnull align 8 dereferenceable(40) %25, ptr noundef nonnull align 4 dereferenceable(4) %9, ptr noundef nonnull align 1 dereferenceable(4) @.str.4)
          to label %26 unwind label %47

26:                                               ; preds = %24
  %27 = getelementptr inbounds %"struct.std::pair", ptr %2, i64 4
  store ptr %27, ptr %3, align 8
  store i32 4, ptr %10, align 4
  invoke void @_ZNSt4pairIKiNSt7__cxx1112basic_stringIcSt11char_traitsIcESaIcEEEEC2IiRA5_KcTnNSt9enable_ifIXaaclsr5_PCCPE22_MoveConstructiblePairIT_T0_EEclsr5_PCCPE30_ImplicitlyMoveConvertiblePairISD_SE_EEEbE4typeELb1EEEOSD_OSE_(ptr noundef nonnull align 8 dereferenceable(40) %27, ptr noundef nonnull align 4 dereferenceable(4) %10, ptr noundef nonnull align 1 dereferenceable(5) @.str.5)
          to label %28 unwind label %47

28:                                               ; preds = %26
  %29 = getelementptr inbounds %"struct.std::pair", ptr %2, i64 5
  store ptr %29, ptr %3, align 8
  store i32 5, ptr %11, align 4
  invoke void @_ZNSt4pairIKiNSt7__cxx1112basic_stringIcSt11char_traitsIcESaIcEEEEC2IiRA9_KcTnNSt9enable_ifIXaaclsr5_PCCPE22_MoveConstructiblePairIT_T0_EEclsr5_PCCPE30_ImplicitlyMoveConvertiblePairISD_SE_EEEbE4typeELb1EEEOSD_OSE_(ptr noundef nonnull align 8 dereferenceable(40) %29, ptr noundef nonnull align 4 dereferenceable(4) %11, ptr noundef nonnull align 1 dereferenceable(9) @.str.6)
          to label %30 unwind label %47

30:                                               ; preds = %28
  %31 = getelementptr inbounds nuw %"class.std::initializer_list", ptr %1, i32 0, i32 0
  store ptr %2, ptr %31, align 8
  %32 = getelementptr inbounds nuw %"class.std::initializer_list", ptr %1, i32 0, i32 1
  store i64 6, ptr %32, align 8
  call void @_ZNSaISt4pairIKiNSt7__cxx1112basic_stringIcSt11char_traitsIcESaIcEEEEEC2Ev(ptr noundef nonnull align 1 dereferenceable(1) %13) #3
  %33 = getelementptr inbounds nuw { ptr, i64 }, ptr %1, i32 0, i32 0
  %34 = load ptr, ptr %33, align 8
  %35 = getelementptr inbounds nuw { ptr, i64 }, ptr %1, i32 0, i32 1
  %36 = load i64, ptr %35, align 8
  invoke void @_ZNSt3mapIiNSt7__cxx1112basic_stringIcSt11char_traitsIcESaIcEEESt4lessIiESaISt4pairIKiS5_EEEC2ESt16initializer_listISA_ERKS7_RKSB_(ptr noundef nonnull align 8 dereferenceable(48) @_ZN10open_spiel7oh_hell9kPhaseStrB5cxx11E, ptr %34, i64 %36, ptr noundef nonnull align 1 dereferenceable(1) %12, ptr noundef nonnull align 1 dereferenceable(1) %13)
          to label %37 unwind label %58

37:                                               ; preds = %30
  call void @_ZNSaISt4pairIKiNSt7__cxx1112basic_stringIcSt11char_traitsIcESaIcEEEEED2Ev(ptr noundef nonnull align 1 dereferenceable(1) %13) #3
  %38 = getelementptr inbounds [6 x %"struct.std::pair"], ptr %2, i32 0, i32 0
  %39 = getelementptr inbounds %"struct.std::pair", ptr %38, i64 6
  br label %40

40:                                               ; preds = %40, %37
  %41 = phi ptr [ %39, %37 ], [ %42, %40 ]
  %42 = getelementptr inbounds %"struct.std::pair", ptr %41, i64 -1
  call void @_ZNSt4pairIKiNSt7__cxx1112basic_stringIcSt11char_traitsIcESaIcEEEED2Ev(ptr noundef nonnull align 8 dereferenceable(40) %42) #3
  %43 = icmp eq ptr %42, %38
  br i1 %43, label %44, label %40

44:                                               ; preds = %40
  %45 = call i32 @__cxa_atexit(ptr @_ZNSt3mapIiNSt7__cxx1112basic_stringIcSt11char_traitsIcESaIcEEESt4lessIiESaISt4pairIKiS5_EEED2Ev, ptr @_ZN10open_spiel7oh_hell9kPhaseStrB5cxx11E, ptr @__dso_handle) #3
  call void @__cxa_guard_release(ptr @_ZGVN10open_spiel7oh_hell9kPhaseStrB5cxx11E) #3
  br label %46

46:                                               ; preds = %44, %16, %0
  ret void

47:                                               ; preds = %28, %26, %24, %22, %20, %19
  %48 = landingpad { ptr, i32 }
          cleanup
  %49 = extractvalue { ptr, i32 } %48, 0
  store ptr %49, ptr %5, align 8
  %50 = extractvalue { ptr, i32 } %48, 1
  store i32 %50, ptr %6, align 4
  %51 = load ptr, ptr %3, align 8
  %52 = icmp eq ptr %2, %51
  br i1 %52, label %57, label %53

53:                                               ; preds = %53, %47
  %54 = phi ptr [ %51, %47 ], [ %55, %53 ]
  %55 = getelementptr inbounds %"struct.std::pair", ptr %54, i64 -1
  call void @_ZNSt4pairIKiNSt7__cxx1112basic_stringIcSt11char_traitsIcESaIcEEEED2Ev(ptr noundef nonnull align 8 dereferenceable(40) %55) #3
  %56 = icmp eq ptr %55, %2
  br i1 %56, label %57, label %53

57:                                               ; preds = %53, %47
  br label %69

58:                                               ; preds = %30
  %59 = landingpad { ptr, i32 }
          cleanup
  %60 = extractvalue { ptr, i32 } %59, 0
  store ptr %60, ptr %5, align 8
  %61 = extractvalue { ptr, i32 } %59, 1
  store i32 %61, ptr %6, align 4
  call void @_ZNSaISt4pairIKiNSt7__cxx1112basic_stringIcSt11char_traitsIcESaIcEEEEED2Ev(ptr noundef nonnull align 1 dereferenceable(1) %13) #3
  %62 = getelementptr inbounds [6 x %"struct.std::pair"], ptr %2, i32 0, i32 0
  %63 = getelementptr inbounds %"struct.std::pair", ptr %62, i64 6
  br label %64

64:                                               ; preds = %64, %58
  %65 = phi ptr [ %63, %58 ], [ %66, %64 ]
  %66 = getelementptr inbounds %"struct.std::pair", ptr %65, i64 -1
  call void @_ZNSt4pairIKiNSt7__cxx1112basic_stringIcSt11char_traitsIcESaIcEEEED2Ev(ptr noundef nonnull align 8 dereferenceable(40) %66) #3
  %67 = icmp eq ptr %66, %62
  br i1 %67, label %68, label %64

68:                                               ; preds = %64
  br label %69

69:                                               ; preds = %68, %57
  call void @__cxa_guard_abort(ptr @_ZGVN10open_spiel7oh_hell9kPhaseStrB5cxx11E) #3
  br label %70

70:                                               ; preds = %69
  %71 = load ptr, ptr %5, align 8
  %72 = load i32, ptr %6, align 4
  %73 = insertvalue { ptr, i32 } poison, ptr %71, 0
  %74 = insertvalue { ptr, i32 } %73, i32 %72, 1
  resume { ptr, i32 } %74
}