; Function Attrs: uwtable
define internal void @__cxx_global_var_init.1() #3 section ".text.startup" comdat($_ZN10open_spiel7oh_hell9kPhaseStrB5cxx11E) personality ptr @__gxx_personality_v0 {
  %1 = alloca [6 x %"struct.std::pair"], align 8
  %2 = alloca i32, align 4
  %3 = alloca i32, align 4
  %4 = alloca i32, align 4
  %5 = alloca i32, align 4
  %6 = alloca i32, align 4
  %7 = alloca i32, align 4
  %8 = alloca %"struct.std::less", align 1
  %9 = alloca %"class.std::allocator.3", align 1
  %10 = load atomic i8, ptr @_ZGVN10open_spiel7oh_hell9kPhaseStrB5cxx11E acquire, align 8
  %11 = icmp eq i8 %10, 0
  br i1 %11, label %12, label %36

12:                                               ; preds = %0
  %13 = tail call i32 @__cxa_guard_acquire(ptr nonnull @_ZGVN10open_spiel7oh_hell9kPhaseStrB5cxx11E) #21
  %.not = icmp eq i32 %13, 0
  br i1 %.not, label %36, label %14

14:                                               ; preds = %12
  store i32 0, ptr %2, align 4
  invoke void @_ZNSt4pairIKiNSt7__cxx1112basic_stringIcSt11char_traitsIcESaIcEEEEC2IiRA16_KcTnNSt9enable_ifIXaaclsr5_PCCPE22_MoveConstructiblePairIT_T0_EEclsr5_PCCPE30_ImplicitlyMoveConvertiblePairISD_SE_EEEbE4typeELb1EEEOSD_OSE_(ptr noundef nonnull align 8 dereferenceable(40) %1, ptr noundef nonnull align 4 dereferenceable(4) %2, ptr noundef nonnull align 1 dereferenceable(16) @.str)
          to label %16 unwind label %.thread

.thread:                                          ; preds = %14
  %15 = landingpad { ptr, i32 }
          cleanup
  br label %.loopexit

16:                                               ; preds = %14
  %17 = getelementptr inbounds i8, ptr %1, i64 40
  store i32 1, ptr %3, align 4
  invoke void @_ZNSt4pairIKiNSt7__cxx1112basic_stringIcSt11char_traitsIcESaIcEEEEC2IiRA13_KcTnNSt9enable_ifIXaaclsr5_PCCPE22_MoveConstructiblePairIT_T0_EEclsr5_PCCPE30_ImplicitlyMoveConvertiblePairISD_SE_EEEbE4typeELb1EEEOSD_OSE_(ptr noundef nonnull align 8 dereferenceable(40) %17, ptr noundef nonnull align 4 dereferenceable(4) %3, ptr noundef nonnull align 1 dereferenceable(13) @.str.2)
          to label %18 unwind label %37

18:                                               ; preds = %16
  %19 = getelementptr inbounds i8, ptr %1, i64 80
  store i32 2, ptr %4, align 4
  invoke void @_ZNSt4pairIKiNSt7__cxx1112basic_stringIcSt11char_traitsIcESaIcEEEEC2IiRA5_KcTnNSt9enable_ifIXaaclsr5_PCCPE22_MoveConstructiblePairIT_T0_EEclsr5_PCCPE30_ImplicitlyMoveConvertiblePairISD_SE_EEEbE4typeELb1EEEOSD_OSE_(ptr noundef nonnull align 8 dereferenceable(40) %19, ptr noundef nonnull align 4 dereferenceable(4) %4, ptr noundef nonnull align 1 dereferenceable(5) @.str.3)
          to label %20 unwind label %37

20:                                               ; preds = %18
  %21 = getelementptr inbounds i8, ptr %1, i64 120
  store i32 3, ptr %5, align 4
  invoke void @_ZNSt4pairIKiNSt7__cxx1112basic_stringIcSt11char_traitsIcESaIcEEEEC2IiRA4_KcTnNSt9enable_ifIXaaclsr5_PCCPE22_MoveConstructiblePairIT_T0_EEclsr5_PCCPE30_ImplicitlyMoveConvertiblePairISD_SE_EEEbE4typeELb1EEEOSD_OSE_(ptr noundef nonnull align 8 dereferenceable(40) %21, ptr noundef nonnull align 4 dereferenceable(4) %5, ptr noundef nonnull align 1 dereferenceable(4) @.str.4)
          to label %22 unwind label %37

22:                                               ; preds = %20
  %23 = getelementptr inbounds i8, ptr %1, i64 160
  store i32 4, ptr %6, align 4
  invoke void @_ZNSt4pairIKiNSt7__cxx1112basic_stringIcSt11char_traitsIcESaIcEEEEC2IiRA5_KcTnNSt9enable_ifIXaaclsr5_PCCPE22_MoveConstructiblePairIT_T0_EEclsr5_PCCPE30_ImplicitlyMoveConvertiblePairISD_SE_EEEbE4typeELb1EEEOSD_OSE_(ptr noundef nonnull align 8 dereferenceable(40) %23, ptr noundef nonnull align 4 dereferenceable(4) %6, ptr noundef nonnull align 1 dereferenceable(5) @.str.5)
          to label %24 unwind label %37

24:                                               ; preds = %22
  %25 = getelementptr inbounds i8, ptr %1, i64 200
  store i32 5, ptr %7, align 4
  invoke void @_ZNSt4pairIKiNSt7__cxx1112basic_stringIcSt11char_traitsIcESaIcEEEEC2IiRA9_KcTnNSt9enable_ifIXaaclsr5_PCCPE22_MoveConstructiblePairIT_T0_EEclsr5_PCCPE30_ImplicitlyMoveConvertiblePairISD_SE_EEEbE4typeELb1EEEOSD_OSE_(ptr noundef nonnull align 8 dereferenceable(40) %25, ptr noundef nonnull align 4 dereferenceable(4) %7, ptr noundef nonnull align 1 dereferenceable(9) @.str.6)
          to label %26 unwind label %37

26:                                               ; preds = %24
  invoke void @_ZNSt3mapIiNSt7__cxx1112basic_stringIcSt11char_traitsIcESaIcEEESt4lessIiESaISt4pairIKiS5_EEEC2ESt16initializer_listISA_ERKS7_RKSB_(ptr noundef nonnull align 8 dereferenceable(48) @_ZN10open_spiel7oh_hell9kPhaseStrB5cxx11E, ptr nonnull %1, i64 6, ptr noundef nonnull align 1 dereferenceable(1) %8, ptr noundef nonnull align 1 dereferenceable(1) %9)
          to label %27 unwind label %44

27:                                               ; preds = %26
  %28 = getelementptr inbounds i8, ptr %1, i64 240
  br label %29

29:                                               ; preds = %29, %27
  %30 = phi ptr [ %28, %27 ], [ %31, %29 ]
  %31 = getelementptr inbounds i8, ptr %30, i64 -40
  %32 = getelementptr inbounds i8, ptr %30, i64 -32
  call void @_ZNSt7__cxx1112basic_stringIcSt11char_traitsIcESaIcEED1Ev(ptr noundef nonnull align 8 dereferenceable(32) %32) #21
  %33 = icmp eq ptr %31, %1
  br i1 %33, label %34, label %29

34:                                               ; preds = %29
  %35 = call i32 @__cxa_atexit(ptr nonnull @_ZNSt3mapIiNSt7__cxx1112basic_stringIcSt11char_traitsIcESaIcEEESt4lessIiESaISt4pairIKiS5_EEED2Ev, ptr nonnull @_ZN10open_spiel7oh_hell9kPhaseStrB5cxx11E, ptr nonnull @__dso_handle) #21
  call void @__cxa_guard_release(ptr nonnull @_ZGVN10open_spiel7oh_hell9kPhaseStrB5cxx11E) #21
  br label %36

36:                                               ; preds = %34, %12, %0
  ret void

37:                                               ; preds = %24, %22, %20, %18, %16
  %.03 = phi ptr [ %25, %24 ], [ %23, %22 ], [ %21, %20 ], [ %19, %18 ], [ %17, %16 ]
  %38 = landingpad { ptr, i32 }
          cleanup
  br label %39

39:                                               ; preds = %37, %39
  %40 = phi ptr [ %.03, %37 ], [ %41, %39 ]
  %41 = getelementptr inbounds i8, ptr %40, i64 -40
  %42 = getelementptr inbounds i8, ptr %40, i64 -32
  call void @_ZNSt7__cxx1112basic_stringIcSt11char_traitsIcESaIcEED1Ev(ptr noundef nonnull align 8 dereferenceable(32) %42) #21
  %43 = icmp eq ptr %41, %1
  br i1 %43, label %.loopexit, label %39

44:                                               ; preds = %26
  %45 = landingpad { ptr, i32 }
          cleanup
  %46 = getelementptr inbounds i8, ptr %1, i64 240
  br label %47

47:                                               ; preds = %47, %44
  %48 = phi ptr [ %46, %44 ], [ %49, %47 ]
  %49 = getelementptr inbounds i8, ptr %48, i64 -40
  %50 = getelementptr inbounds i8, ptr %48, i64 -32
  call void @_ZNSt7__cxx1112basic_stringIcSt11char_traitsIcESaIcEED1Ev(ptr noundef nonnull align 8 dereferenceable(32) %50) #21
  %51 = icmp eq ptr %49, %1
  br i1 %51, label %.loopexit, label %47

.loopexit:                                        ; preds = %39, %47, %.thread
  %.pn = phi { ptr, i32 } [ %15, %.thread ], [ %45, %47 ], [ %38, %39 ]
  call void @__cxa_guard_abort(ptr nonnull @_ZGVN10open_spiel7oh_hell9kPhaseStrB5cxx11E) #21
  resume { ptr, i32 } %.pn
}